target datalayout = "e-m:e-p270:32:32-p271:32:32-p272:64:64-i64:64-i128:128-f80:128-n8:16:32:64-S128"
target triple = "x86_64-pc-linux-gnu"

@.str.5 = private unnamed_addr constant [19 x i8] c"could not fork: %m\00", align 1
@.str.6 = private unnamed_addr constant [8 x i8] c"exec %s\00", align 1
@shellprog = internal global ptr @.str.93, align 8
@.str.7 = private unnamed_addr constant [3 x i8] c"-c\00", align 1
@.str.8 = private unnamed_addr constant [24 x i8] c"could not exec \22%s\22: %m\00", align 1

; Function Attrs: nounwind uwtable
define hidden i32 @spawn_process(ptr noundef %0) #0 {
  %2 = alloca ptr, align 8
  %3 = alloca i32, align 4
  %4 = alloca ptr, align 8
  store ptr %0, ptr %2, align 8
  call void @llvm.lifetime.start.p0(i64 4, ptr %3) #14
  %5 = call i32 @fflush(ptr noundef null)
  %6 = call i32 @fork() #14
  store i32 %6, ptr %3, align 4
  %7 = load i32, ptr %3, align 4
  %8 = icmp eq i32 %7, -1
  br i1 %8, label %9, label %10

9:                                                ; preds = %1
  call void (i1, ptr, ...) @bail_out(i1 noundef zeroext false, ptr noundef @.str.5)
  br label %10

10:                                               ; preds = %9, %1
  %11 = load i32, ptr %3, align 4
  %12 = icmp eq i32 %11, 0
  br i1 %12, label %13, label %21

13:                                               ; preds = %10
  call void @llvm.lifetime.start.p0(i64 8, ptr %4) #14
  %14 = load ptr, ptr %2, align 8
  %15 = call ptr (ptr, ...) @psprintf(ptr noundef @.str.6, ptr noundef %14)
  store ptr %15, ptr %4, align 8
  %16 = load ptr, ptr @shellprog, align 8
  %17 = load ptr, ptr @shellprog, align 8
  %18 = load ptr, ptr %4, align 8
  %19 = call i32 (ptr, ptr, ...) @execl(ptr noundef %16, ptr noundef %17, ptr noundef @.str.7, ptr noundef %18, ptr noundef null) #14
  %20 = load ptr, ptr @shellprog, align 8
  call void (i1, ptr, ...) @bail_out(i1 noundef zeroext true, ptr noundef @.str.8, ptr noundef %20)
  call void @llvm.lifetime.end.p0(i64 8, ptr %4) #14
  br label %21

21:                                               ; preds = %13, %10
  %22 = load i32, ptr %3, align 4
  call void @llvm.lifetime.end.p0(i64 4, ptr %3) #14
  ret i32 %22
}