; Function Attrs: nounwind uwtable
define hidden range(i32 1, -1) i32 @spawn_process(ptr noundef %0) local_unnamed_addr #0 {
  %2 = tail call i32 @fflush(ptr noundef null)
  %3 = tail call i32 @fork() #22
  switch i32 %3, label %8 [
    i32 -1, label %4
    i32 0, label %5
  ]

4:                                                ; preds = %1
  tail call void (i1, ptr, ...) @bail_out(i1 noundef zeroext false, ptr noundef nonnull @.str.5)
  unreachable

5:                                                ; preds = %1
  %6 = tail call ptr (ptr, ...) @psprintf(ptr noundef nonnull @.str.6, ptr noundef %0) #22
  %7 = tail call i32 (ptr, ptr, ...) @execl(ptr noundef nonnull @.str.93, ptr noundef nonnull @.str.93, ptr noundef nonnull @.str.7, ptr noundef %6, ptr noundef null) #22
  tail call void (i1, ptr, ...) @bail_out(i1 noundef zeroext true, ptr noundef nonnull @.str.8, ptr noundef nonnull @.str.93)
  unreachable

8:                                                ; preds = %1
  ret i32 %3
}